; Function Attrs: mustprogress uwtable
define hidden noundef ptr @_ZNK5psort4findEPKP4sort(ptr nocapture noundef nonnull readonly align 8 dereferenceable(32) %this, ptr noundef %s) unnamed_addr #3 align 2 {
entry:
  %m_inst_cache = getelementptr inbounds i8, ptr %this, i64 24
  %0 = load ptr, ptr %m_inst_cache, align 8
  %tobool.not = icmp eq ptr %0, null
  br i1 %tobool.not, label %return, label %if.end

if.end:                                           ; preds = %entry
  %call = tail call noundef ptr @_ZNK16psort_inst_cache4findEPKP4sort(ptr noundef nonnull align 8 dereferenceable(40) %0, ptr noundef %s)
  br label %return

return:                                           ; preds = %entry, %if.end
  %retval.0 = phi ptr [ %call, %if.end ], [ null, %entry ]
  ret ptr %retval.0
}